target datalayout = "e-m:e-p270:32:32-p271:32:32-p272:64:64-i64:64-i128:128-f80:128-n8:16:32:64-S128"
target triple = "x86_64-pc-linux-gnu"

%struct.dict = type { ptr, [2 x ptr], [2 x i64], i64, i16, [2 x i8], i16, [0 x ptr] }

@.str.1 = private unnamed_addr constant [7 x i8] c"dict.c\00", align 1
@.str.11 = private unnamed_addr constant [19 x i8] c"dictIsRehashing(d)\00", align 1

; Function Attrs: nounwind uwtable
define dso_local void @dictRehashingInfo(ptr noundef %0, ptr noundef %1, ptr noundef %2) #0 {
  %4 = alloca ptr, align 8
  %5 = alloca ptr, align 8
  %6 = alloca ptr, align 8
  store ptr %0, ptr %4, align 8, !tbaa !18
  store ptr %1, ptr %5, align 8, !tbaa !109
  store ptr %2, ptr %6, align 8, !tbaa !109
  %7 = load ptr, ptr %4, align 8, !tbaa !18
  %8 = getelementptr inbounds nuw %struct.dict, ptr %7, i32 0, i32 3
  %9 = load i64, ptr %8, align 8, !tbaa !11
  %10 = icmp ne i64 %9, -1
  %11 = xor i1 %10, true
  %12 = xor i1 %11, true
  %13 = zext i1 %12 to i32
  %14 = sext i32 %13 to i64
  %15 = call i64 @llvm.expect.i64(i64 %14, i64 1)
  %16 = icmp ne i64 %15, 0
  br i1 %16, label %17, label %18

17:                                               ; preds = %3
  br label %20

18:                                               ; preds = %3
  call void @_serverAssert(ptr noundef @.str.11, ptr noundef @.str.1, i32 noundef 1713)
  call void @abort() #17
  unreachable

19:                                               ; No predecessors!
  br label %20

20:                                               ; preds = %19, %17
  %21 = load ptr, ptr %4, align 8, !tbaa !18
  %22 = getelementptr inbounds nuw %struct.dict, ptr %21, i32 0, i32 5
  %23 = getelementptr inbounds [2 x i8], ptr %22, i64 0, i64 0
  %24 = load i8, ptr %23, align 2, !tbaa !25
  %25 = sext i8 %24 to i32
  %26 = icmp eq i32 %25, -1
  br i1 %26, label %27, label %28

27:                                               ; preds = %20
  br label %36

28:                                               ; preds = %20
  %29 = load ptr, ptr %4, align 8, !tbaa !18
  %30 = getelementptr inbounds nuw %struct.dict, ptr %29, i32 0, i32 5
  %31 = getelementptr inbounds [2 x i8], ptr %30, i64 0, i64 0
  %32 = load i8, ptr %31, align 2, !tbaa !25
  %33 = sext i8 %32 to i32
  %34 = zext i32 %33 to i64
  %35 = shl i64 1, %34
  br label %36

36:                                               ; preds = %28, %27
  %37 = phi i64 [ 0, %27 ], [ %35, %28 ]
  %38 = load ptr, ptr %5, align 8, !tbaa !109
  store i64 %37, ptr %38, align 8, !tbaa !75
  %39 = load ptr, ptr %4, align 8, !tbaa !18
  %40 = getelementptr inbounds nuw %struct.dict, ptr %39, i32 0, i32 5
  %41 = getelementptr inbounds [2 x i8], ptr %40, i64 0, i64 1
  %42 = load i8, ptr %41, align 1, !tbaa !25
  %43 = sext i8 %42 to i32
  %44 = icmp eq i32 %43, -1
  br i1 %44, label %45, label %46

45:                                               ; preds = %36
  br label %54

46:                                               ; preds = %36
  %47 = load ptr, ptr %4, align 8, !tbaa !18
  %48 = getelementptr inbounds nuw %struct.dict, ptr %47, i32 0, i32 5
  %49 = getelementptr inbounds [2 x i8], ptr %48, i64 0, i64 1
  %50 = load i8, ptr %49, align 1, !tbaa !25
  %51 = sext i8 %50 to i32
  %52 = zext i32 %51 to i64
  %53 = shl i64 1, %52
  br label %54

54:                                               ; preds = %46, %45
  %55 = phi i64 [ 0, %45 ], [ %53, %46 ]
  %56 = load ptr, ptr %6, align 8, !tbaa !109
  store i64 %55, ptr %56, align 8, !tbaa !75
  ret void
}