; Function Attrs: nounwind uwtable
define dso_local void @dictRehashingInfo(ptr noundef readonly captures(none) %0, ptr noundef writeonly captures(none) %1, ptr noundef writeonly captures(none) %2) local_unnamed_addr #3 {
  %4 = getelementptr inbounds nuw i8, ptr %0, i64 40
  %5 = load i64, ptr %4, align 8, !tbaa !14
  %.not = icmp eq i64 %5, -1
  br i1 %.not, label %6, label %7, !prof !43

6:                                                ; preds = %3
  tail call void @_serverAssert(ptr noundef nonnull @.str.11, ptr noundef nonnull @.str.1, i32 noundef 1713) #25
  tail call void @abort() #27
  unreachable

7:                                                ; preds = %3
  %8 = getelementptr inbounds nuw i8, ptr %0, i64 50
  %9 = load i8, ptr %8, align 2, !tbaa !13
  %10 = icmp eq i8 %9, -1
  %11 = sext i8 %9 to i64
  %12 = and i64 %11, 4294967295
  %13 = shl nuw i64 1, %12
  %14 = select i1 %10, i64 0, i64 %13
  store i64 %14, ptr %1, align 8, !tbaa !65
  %15 = getelementptr inbounds nuw i8, ptr %0, i64 51
  %16 = load i8, ptr %15, align 1, !tbaa !13
  %17 = icmp eq i8 %16, -1
  %18 = sext i8 %16 to i64
  %19 = and i64 %18, 4294967295
  %20 = shl nuw i64 1, %19
  %21 = select i1 %17, i64 0, i64 %20
  store i64 %21, ptr %2, align 8, !tbaa !65
  ret void
}